; Function Attrs: mustprogress uwtable
define void @_ZN4cvc56parser15SimplifyCommandC2ENS_4TermE(ptr noundef nonnull align 8 dereferenceable(64) initializes((0, 40)) %0, ptr noundef readonly captures(none) %1) unnamed_addr #3 align 2 personality ptr @__gxx_personality_v0 {
  %3 = getelementptr inbounds nuw i8, ptr %0, i64 8
  store ptr null, ptr %3, align 8, !tbaa !48
  store ptr getelementptr inbounds nuw inrange(-16, 56) (i8, ptr @_ZTVN4cvc56parser15SimplifyCommandE, i64 16), ptr %0, align 8, !tbaa !6
  %4 = getelementptr inbounds nuw i8, ptr %0, i64 16
  %5 = load ptr, ptr %1, align 8, !tbaa !92
  store ptr %5, ptr %4, align 8, !tbaa !92
  %6 = getelementptr inbounds nuw i8, ptr %0, i64 24
  %7 = getelementptr inbounds nuw i8, ptr %1, i64 8
  %8 = load ptr, ptr %7, align 8, !tbaa !98
  store ptr %8, ptr %6, align 8, !tbaa !98
  %9 = getelementptr inbounds nuw i8, ptr %0, i64 32
  %10 = getelementptr inbounds nuw i8, ptr %1, i64 16
  %11 = load ptr, ptr %10, align 8, !tbaa !25
  store ptr %11, ptr %9, align 8, !tbaa !25
  %.not.i.i.i.i = icmp eq ptr %11, null
  br i1 %.not.i.i.i.i, label %_ZN4cvc54TermC2ERKS0_.exit, label %12

12:                                               ; preds = %2
  %13 = getelementptr inbounds nuw i8, ptr %11, i64 8
  %14 = load i8, ptr @__libc_single_threaded, align 1, !tbaa !3
  %.not.i.i.i.i.i = icmp eq i8 %14, 0
  br i1 %.not.i.i.i.i.i, label %18, label %15

15:                                               ; preds = %12
  %16 = load i32, ptr %13, align 4, !tbaa !31
  %17 = add nsw i32 %16, 1
  store i32 %17, ptr %13, align 4, !tbaa !31
  br label %_ZN4cvc54TermC2ERKS0_.exit

18:                                               ; preds = %12
  %19 = atomicrmw volatile add ptr %13, i32 1 acq_rel, align 4
  br label %_ZN4cvc54TermC2ERKS0_.exit

_ZN4cvc54TermC2ERKS0_.exit:                       ; preds = %2, %15, %18
  %20 = getelementptr inbounds nuw i8, ptr %0, i64 40
  invoke void @_ZN4cvc54TermC1Ev(ptr noundef nonnull align 8 dereferenceable(24) %20)
          to label %21 unwind label %22

21:                                               ; preds = %_ZN4cvc54TermC2ERKS0_.exit
  ret void

22:                                               ; preds = %_ZN4cvc54TermC2ERKS0_.exit
  %23 = landingpad { ptr, i32 }
          cleanup
  tail call void @_ZN4cvc54TermD1Ev(ptr noundef nonnull align 8 dereferenceable(24) %4) #33
  store ptr getelementptr inbounds nuw inrange(-16, 56) (i8, ptr @_ZTVN4cvc56parser3CmdE, i64 16), ptr %0, align 8, !tbaa !6
  %24 = load ptr, ptr %3, align 8, !tbaa !48
  %.not.i = icmp eq ptr %24, null
  %25 = load ptr, ptr @_ZN4cvc56parser14CommandSuccess10s_instanceE, align 8
  %.not2.i = icmp eq ptr %24, %25
  %or.cond.i = select i1 %.not.i, i1 true, i1 %.not2.i
  br i1 %or.cond.i, label %_ZN4cvc56parser3CmdD2Ev.exit, label %26

26:                                               ; preds = %22
  %27 = load ptr, ptr %24, align 8, !tbaa !6
  %28 = getelementptr inbounds nuw i8, ptr %27, i64 8
  %29 = load ptr, ptr %28, align 8
  tail call void %29(ptr noundef nonnull align 8 dereferenceable(8) %24) #33
  br label %_ZN4cvc56parser3CmdD2Ev.exit

_ZN4cvc56parser3CmdD2Ev.exit:                     ; preds = %22, %26
  resume { ptr, i32 } %23
}